Certificate:
    Data:
        Version: 1 (0x0)
        Serial Number:
            9a:3c:72:dc:7f:26:cd:4d
        Signature Algorithm: sha1WithRSAEncryption
        Issuer: C=TW, ST=Some-State, L=Taiwan, O=eg, CN=psychesnet/emailAddress=psychesnet@gmail.com
        Validity
            Not Before: Jun 16 07:02:09 2016 GMT
            Not After : Jun 16 07:02:09 2017 GMT
        Subject: C=TW, ST=Some-State, L=Taiwan, O=eg, CN=psychesnet/emailAddress=psychesnet@gmail.com
        Subject Public Key Info:
            Public Key Algorithm: rsaEncryption
            RSA Public Key: (2048 bit)
                Modulus (2048 bit):
                    00:a5:1a:9d:dd:84:f8:f2:08:89:f7:ee:1b:ba:24:
                    35:b2:94:15:86:a9:d2:4b:16:10:e8:2f:5a:56:a7:
                    6a:e4:0c:87:2b:1e:f1:60:98:a7:bf:bd:31:7c:f3:
                    47:cb:d5:80:17:86:96:2e:21:91:a2:2e:4d:b2:c5:
                    9e:ae:b7:fa:3f:9d:89:6c:78:c5:e6:f8:83:89:9c:
                    d2:07:b4:b3:13:9e:72:b4:29:ee:63:df:fe:c4:ad:
                    fc:94:ac:57:6c:2e:ec:89:c9:88:15:6c:a0:67:56:
                    7a:2e:f6:00:7a:a3:34:3f:fc:a6:b9:c8:f2:a6:a7:
                    31:86:a7:46:36:83:93:bf:e9:83:f6:fe:3a:3d:66:
                    f6:5f:3e:95:8b:13:de:6f:e5:66:74:87:2e:25:53:
                    d8:28:af:46:c6:6b:a7:3c:08:cb:08:e7:94:c2:d8:
                    4b:95:60:dd:80:f7:95:3b:8d:06:c0:bb:d8:bf:b4:
                    4d:2a:5e:e8:50:d6:69:f7:64:5b:e0:c2:ec:79:d9:
                    96:76:de:05:e8:e8:c0:30:59:aa:9d:22:af:af:54:
                    da:fb:bd:05:47:1b:b9:67:38:91:64:bb:5a:4b:70:
                    a8:64:01:d5:2b:e7:0d:e3:1d:7c:44:6d:bc:64:b3:
                    08:ab:8d:40:f9:a4:30:b8:87:8c:ec:6d:3c:67:8a:
                    8b:67
                Exponent: 65537 (0x10001)
    Signature Algorithm: sha1WithRSAEncryption
        0f:28:bb:d5:48:41:a2:f9:fd:aa:35:e6:90:59:54:22:1a:4b:
        ec:96:84:94:06:35:38:fd:a3:84:ab:51:a3:e3:90:87:96:73:
        8c:40:1f:5d:bc:68:7c:6b:e4:25:b8:f2:4f:8c:1a:c6:9a:16:
        75:10:d9:84:f9:8b:ff:17:a8:66:8e:6e:b5:a4:3f:b7:7b:7f:
        50:0b:f4:fa:e7:af:c2:bb:79:95:b3:d6:7d:21:6d:1b:ee:94:
        d0:1b:f6:d7:12:3f:4f:2a:a3:b7:60:69:ac:c4:a2:4a:a1:8f:
        0b:4f:96:19:33:30:df:20:01:3f:ed:37:47:92:12:b1:87:86:
        4c:2d:39:5f:b1:fc:69:a6:be:23:a5:1d:7e:de:31:46:87:f8:
        a5:66:da:1d:59:ea:06:f5:1d:9a:4f:65:b8:18:a2:51:f7:b1:
        1b:b5:0c:de:45:c1:f2:7e:42:ff:60:cb:10:f3:a1:79:b4:f1:
        6c:9e:ab:31:bd:a3:73:b2:e0:e8:d9:6e:94:22:07:a2:7c:01:
        c3:25:9f:a7:3b:a1:a6:25:a1:90:87:59:cd:2c:f1:1d:ad:d9:
        6e:db:d3:d2:b7:5c:6f:4f:17:c2:d3:24:97:49:c1:55:b3:75:
        a1:c0:41:ab:57:d1:75:2d:32:9e:02:32:2c:21:a5:34:8e:d7:
        09:db:7c:eb
-----BEGIN CERTIFICATE-----
MIIDcDCCAlgCCQCaPHLcfybNTTANBgkqhkiG9w0BAQUFADB6MQswCQYDVQQGEwJU
VzETMBEGA1UECBMKU29tZS1TdGF0ZTEPMA0GA1UEBxMGVGFpd2FuMQswCQYDVQQK
EwJlZzETMBEGA1UEAxMKcHN5Y2hlc25ldDEjMCEGCSqGSIb3DQEJARYUcHN5Y2hl
c25ldEBnbWFpbC5jb20wHhcNMTYwNjE2MDcwMjA5WhcNMTcwNjE2MDcwMjA5WjB6
MQswCQYDVQQGEwJUVzETMBEGA1UECBMKU29tZS1TdGF0ZTEPMA0GA1UEBxMGVGFp
d2FuMQswCQYDVQQKEwJlZzETMBEGA1UEAxMKcHN5Y2hlc25ldDEjMCEGCSqGSIb3
DQEJARYUcHN5Y2hlc25ldEBnbWFpbC5jb20wggEiMA0GCSqGSIb3DQEBAQUAA4IB
DwAwggEKAoIBAQClGp3dhPjyCIn37hu6JDWylBWGqdJLFhDoL1pWp2rkDIcrHvFg
mKe/vTF880fL1YAXhpYuIZGiLk2yxZ6ut/o/nYlseMXm+IOJnNIHtLMTnnK0Ke5j
3/7ErfyUrFdsLuyJyYgVbKBnVnou9gB6ozQ//Ka5yPKmpzGGp0Y2g5O/6YP2/jo9
ZvZfPpWLE95v5WZ0hy4lU9gor0bGa6c8CMsI55TC2EuVYN2A95U7jQbAu9i/tE0q
XuhQ1mn3ZFvgwux52ZZ23gXo6MAwWaqdIq+vVNr7vQVHG7lnOJFku1pLcKhkAdUr
5w3jHXxEbbxkswirjUD5pDC4h4zsbTxniotnAgMBAAEwDQYJKoZIhvcNAQEFBQAD
ggEBAA8ou9VIQaL5/ao15pBZVCIaS+yWhJQGNTj9o4SrUaPjkIeWc4xAH128aHxr
5CW48k+MGsaaFnUQ2YT5i/8XqGaObrWkP7d7f1AL9Prnr8K7eZWz1n0hbRvulNAb
9tcSP08qo7dgaazEokqhjwtPlhkzMN8gAT/tN0eSErGHhkwtOV+x/GmmviOlHX7e
MUaH+KVm2h1Z6gb1HZpPZbgYolH3sRu1DN5FwfJ+Qv9gyxDzoXm08WyeqzG9o3Oy
4OjZbpQiB6J8AcMln6c7oaYloZCHWc0s8R2t2W7b09K3XG9PF8LTJJdJwVWzdaHA
QatX0XUtMp4CMiwhpTSO1wnbfOs=
-----END CERTIFICATE-----
-----BEGIN RSA PRIVATE KEY-----
Proc-Type: 4,ENCRYPTED
DEK-Info: AES-256-CBC,0634D7488CC75994889708F1A665F56A

gCs6RyIGgoAcK9a9mEIw3+5TVI4Xag3ix0PwCE79nNRdASn4DNLeJGwZ/ZAsZEK2
lXOJ8lFCy1mZBigHU/yLJqdISNu9UNPyNM6PqgOCln0nFCf3j4McMt13SA7dPKnw
Z+EzDscw8Ou6KK/rSgvT0SiZZJ1NqJXrFFxk1N3Hj14rWm8J9FKavoRCaiVRFWQR
/Z/8uBMiDWMc72617teGT2dxgY5jlcprW0zAHtNQTYPQiEl6gCc58odGZFrI71N6
t2PUB8+ON9ZhaY1/DKtX0PaUmnh34Z2hIevXmn1fc9D8CSz4NahdjTInwPPpO04d
cCGT0nYGJHnbFL8CJoLw+dvjgaqZSGY/2r4kpQ/VctnOEiqW0V9uwshdS4vclzCZ
IcUwfHLH+ld9KDu9Nw7Ynt1Il3ZFnHHIQ7jpJeKvpFsFCV7aKEmYDYgZbR+3Ijer
KDxoV4lw0SIAMjeqFi/9WTtIFSJ7BvQcY5kVQm6HyNupdAOK0WTne9080V+kXjPQ
fBUqXa0vPMauxMhOlMA45WGVycXy9BPz18Ne9xwEJ6IMRL9D8TswXQJNSqQ0DK97
VtzQ/amegZR1Y3LSQYKcMZZfnQapazRD7cXNMoOfhrBX6nLZwWseR9ePG9tFqEMc
PR5Ux98a5LzdP8A4g7/RKtLC1JLelLWP2qIYIrCr52wFgKm/gR+68glYCl4fRc3g
Btkdj2sGKw6eYTlCx8hVjFN/ayKpOoKdzoG/bu80A4bdgA294iQdj1b1cZWzNb0t
7URQ2KpVMGv3AZSMH5AxgLZ95UA71NTs642OKDqqhA8R8AJddkPNPPHi631U+Spz
+cEBmkCPiOvHPV/hXbAEiaFW/O7e6eyR5rmQEEZSVQ2T54bmikbxgXQds0YNSSzM
XATSrvj1u1K6ADXiEooy1+EUXl/3A03s7FBI3/ZbggQLRUape5wd9mpJy4BTWU+r
Ddq83dH+TbLeEwrtNePINVap7/2Dw8cmNCxp1bl9U32X2vcaZEBkNC3yIATCDXQ+
Wi1HwjiPT7jhtKDcBcj4x0Z+/FGmj9JLDFAFXiBXlXcDDMKK/KqY4IQndXnDQiTI
4KilOTN43du5SL6N1JvmhadgjqoKTetst2CFWY7eqOXWLOY93934upGJs82lS+kW
Y6gCqvz54v2gyjERUHLzc6zA/TDTly29qH1l+/kmY7SInjKrC9zxLU+RLKNPABvn
/Wi/sUACvmkt/qhWU3ceiWcPnWpL2GycgHBxOeDDl1InLhQbTSifJ3XClzJNndql
gK96XZc/MnrMM3M8puKF6E4fJ5o3W0D0a3+5cVHBGUfKKjI9Tky7qLr6suQ+XlGz
mEDPOE9dqDibw0weyOo2bzm4CoCEZ183AUGxlKWmrdWJMIVpjLirlh9ej86otECn
OsiB4i0M4B8MGpPEer0SLMbod+PfQVhATodTB6HQFEhI74arwplFRO05BklszN/L
hNXOHToshcqr4Apskdqassbkg6skofq4t1hjKU82Ob1h7pMehkc8Wt9imLRD6AtE
dv375//dZYz92lwukSBpsXYipfOWGNkuW+G2kkLl1mB+I7q9AzXk9W93X/Z15dpI
-----END RSA PRIVATE KEY-----
